; Function Attrs: mustprogress nounwind uwtable
define dso_local noundef zeroext i1 @_ZN4llvm8LLParser3RunEbNS_12function_refIFSt8optionalINSt7__cxx1112basic_stringIcSt11char_traitsIcESaIcEEEENS_9StringRefESA_EEE(ptr noundef nonnull align 8 dereferenceable(1768) %0, i1 noundef zeroext %1, ptr nocapture readonly %2, i64 %3) local_unnamed_addr #0 align 2 {
  %5 = alloca %"class.llvm::Twine", align 8
  %6 = getelementptr inbounds nuw i8, ptr %0, i64 176
  %7 = tail call noundef i32 @_ZN4llvm7LLLexer8LexTokenEv(ptr noundef nonnull align 8 dereferenceable(161) %6) #25
  %8 = getelementptr inbounds i8, ptr %0, i64 232
  store i32 %7, ptr %8, align 8
  %9 = load ptr, ptr %0, align 8
  %10 = tail call noundef zeroext i1 @_ZNK4llvm11LLVMContext23shouldDiscardValueNamesEv(ptr noundef nonnull align 8 dereferenceable(8) %9) #25
  br i1 %10, label %11, label %17

11:                                               ; preds = %4
  %12 = getelementptr inbounds i8, ptr %0, i64 224
  %13 = load ptr, ptr %12, align 8
  %14 = getelementptr inbounds nuw i8, ptr %5, i64 32
  %15 = getelementptr inbounds nuw i8, ptr %5, i64 33
  store i8 1, ptr %15, align 1
  store ptr @.str.2, ptr %5, align 8
  store i8 3, ptr %14, align 8
  %16 = call noundef zeroext i1 @_ZNK4llvm7LLLexer5ErrorENS_5SMLocERKNS_5TwineE(ptr noundef nonnull align 8 dereferenceable(161) %6, ptr %13, ptr noundef nonnull align 8 dereferenceable(34) %5) #25
  br label %28

17:                                               ; preds = %4
  %18 = getelementptr inbounds nuw i8, ptr %0, i64 344
  %19 = load ptr, ptr %18, align 8
  %.not = icmp eq ptr %19, null
  br i1 %.not, label %22, label %20

20:                                               ; preds = %17
  %21 = tail call noundef zeroext i1 @_ZN4llvm8LLParser22parseTargetDefinitionsENS_12function_refIFSt8optionalINSt7__cxx1112basic_stringIcSt11char_traitsIcESaIcEEEENS_9StringRefESA_EEE(ptr noundef nonnull align 8 dereferenceable(1768) %0, ptr %2, i64 %3)
  br i1 %21, label %28, label %22

22:                                               ; preds = %20, %17
  %23 = tail call noundef zeroext i1 @_ZN4llvm8LLParser21parseTopLevelEntitiesEv(ptr noundef nonnull align 8 dereferenceable(1768) %0)
  br i1 %23, label %28, label %24

24:                                               ; preds = %22
  %25 = tail call noundef zeroext i1 @_ZN4llvm8LLParser19validateEndOfModuleEb(ptr noundef nonnull align 8 dereferenceable(1768) %0, i1 noundef zeroext %1)
  br i1 %25, label %28, label %26

26:                                               ; preds = %24
  %27 = tail call noundef zeroext i1 @_ZN4llvm8LLParser18validateEndOfIndexEv(ptr noundef nonnull align 8 dereferenceable(1768) %0)
  br label %28

28:                                               ; preds = %22, %24, %26, %20, %11
  %.0 = phi i1 [ %16, %11 ], [ true, %20 ], [ true, %24 ], [ true, %22 ], [ %27, %26 ]
  ret i1 %.0
}